target datalayout = "e-m:e-p270:32:32-p271:32:32-p272:64:64-i64:64-i128:128-f80:128-n8:16:32:64-S128"
target triple = "x86_64-pc-linux-gnu"

%struct.rb_data_type_struct = type { ptr, %struct.anon, ptr, ptr, i64 }
%struct.anon = type { ptr, ptr, ptr, ptr, [1 x ptr] }

@.str = private unnamed_addr constant [4 x i8] c"Bug\00", align 1
@.str.1 = private unnamed_addr constant [22 x i8] c"ThreadInstrumentation\00", align 1
@timeline_value = internal global i64 4, align 8
@event_timeline_type = internal constant %struct.rb_data_type_struct { ptr @.str.5, %struct.anon { ptr @event_timeline_gc_mark, ptr null, ptr null, ptr null, [1 x ptr] zeroinitializer }, ptr null, ptr null, i64 1 }, align 8
@last_thread = internal global i64 4, align 8
@.str.2 = private unnamed_addr constant [18 x i8] c"register_callback\00", align 1
@.str.3 = private unnamed_addr constant [20 x i8] c"unregister_callback\00", align 1
@.str.4 = private unnamed_addr constant [34 x i8] c"register_and_unregister_callbacks\00", align 1

; Function Attrs: nounwind sspstrong uwtable
define void @Init_instrumentation() #0 {
  %1 = alloca i64, align 8
  %2 = alloca i64, align 8
  call void @llvm.lifetime.start.p0(i64 8, ptr %1) #11
  %3 = call i64 @rb_define_module(ptr noundef @.str)
  store i64 %3, ptr %1, align 8, !tbaa !6
  call void @llvm.lifetime.start.p0(i64 8, ptr %2) #11
  %4 = load i64, ptr %1, align 8, !tbaa !6
  %5 = call i64 @rb_define_module_under(i64 noundef %4, ptr noundef @.str.1)
  store i64 %5, ptr %2, align 8, !tbaa !6
  call void @rb_global_variable(ptr noundef @timeline_value)
  %6 = call i64 @rb_data_typed_object_wrap(i64 noundef 0, ptr noundef null, ptr noundef @event_timeline_type)
  store i64 %6, ptr @timeline_value, align 8, !tbaa !6
  call void @rb_global_variable(ptr noundef @last_thread)
  %7 = load i64, ptr %2, align 8, !tbaa !6
  call void @rb_define_singleton_method(i64 noundef %7, ptr noundef @.str.2, ptr noundef @thread_register_callback, i32 noundef 1)
  %8 = load i64, ptr %2, align 8, !tbaa !6
  call void @rb_define_singleton_method(i64 noundef %8, ptr noundef @.str.3, ptr noundef @thread_unregister_callback, i32 noundef 0)
  %9 = load i64, ptr %2, align 8, !tbaa !6
  call void @rb_define_singleton_method(i64 noundef %9, ptr noundef @.str.4, ptr noundef @thread_register_and_unregister_callback, i32 noundef 0)
  call void @llvm.lifetime.end.p0(i64 8, ptr %2) #11
  call void @llvm.lifetime.end.p0(i64 8, ptr %1) #11
  ret void
}