; Function Attrs: nounwind sspstrong uwtable
define void @Init_instrumentation() local_unnamed_addr #0 {
  %1 = tail call i64 @rb_define_module(ptr noundef nonnull @.str) #5
  %2 = tail call i64 @rb_define_module_under(i64 noundef %1, ptr noundef nonnull @.str.1) #5
  tail call void @rb_global_variable(ptr noundef nonnull @timeline_value) #5
  %3 = tail call i64 @rb_data_typed_object_wrap(i64 noundef 0, ptr noundef null, ptr noundef nonnull @event_timeline_type) #5
  store i64 %3, ptr @timeline_value, align 8, !tbaa !6
  tail call void @rb_global_variable(ptr noundef nonnull @last_thread) #5
  tail call void @rb_define_singleton_method(i64 noundef %2, ptr noundef nonnull @.str.2, ptr noundef nonnull @thread_register_callback, i32 noundef 1) #5
  tail call void @rb_define_singleton_method(i64 noundef %2, ptr noundef nonnull @.str.3, ptr noundef nonnull @thread_unregister_callback, i32 noundef 0) #5
  tail call void @rb_define_singleton_method(i64 noundef %2, ptr noundef nonnull @.str.4, ptr noundef nonnull @thread_register_and_unregister_callback, i32 noundef 0) #5
  ret void
}